(dp0
I0
(dp1
I0
(dp2
S'text'
p3
S'movie was just awesome... first kannada movie i watched twice on big screen :) hats of to mr director n his entire crew :)'
p4
sS'tweet'
p5
g4
sS'label'
p6
S'positive'
p7
ssI1
(dp8
g3
S'dear pawan kumar... was blessed to witness the masterpiece at a movie theater in bangalore couple of days ago. it was a struggle to make it to a movie theater due to my hectic blore trip but the effort was worth every second. hats off to the simple yet meaningful screenplay and excellent editing. kudos to you and your entire team.on a lighter note, i am fortunate to share your name. may god bless you with lots of energy and health for countless exciting work from you and your team.'
p9
sg5
g9
sg6
g7
ssI2
(dp10
g3
S'kannada movies really very interesting better then before i proud to be a kannadiga wish you all the success all the very best for sandalwood....jamaisro maga takkar cinemakanla ithu'
p11
sg5
g11
sg6
g7
ssI3
(dp12
g3
S'a perfect medley of big league hits including requiem for a dream, fear and loathing in las vegas and trainspotting to name a few. accolades to the director for a job well done !!!'
p13
sg5
g13
sg6
g7
ssI4
(dp14
g3
S'lucia in a different canvas....excellent...looking for theatres'
p15
sg5
g15
sg6
g7
ssI5
(dp16
g3
S'user ratings for lucia (2013/i) 1804 imdb users have given a weighted average vote of 7.8 / 10 probably the first kannada movie on imdb to have received more than a thousand votes!'
p17
sg5
g17
sg6
S'neutral'
p18
ssI6
(dp19
g3
S"katrina's secret video exposed fit6u.com"
p20
sg5
g20
sg6
S'negative'
p21
ssI7
(dp22
g3
S'epic movie.......!  please so watch the movie..'
p23
sg5
g23
sg6
g7
ssI8
(dp24
g3
S'brilliant movie.. !'
p25
sg5
g25
sg6
g7
ssI9
(dp26
g3
S'one of the best kannada movie in the recent times. i urge everybody to watch this movie.'
p27
sg5
g27
sg6
g7
ssI10
(dp28
g3
S'hi pavan your thinking is immersive, ur movie is breath taking, ur now an kannadigas trasure. i watched ur movie 3 times, this movie is kannadas hollywood inception. i am so worried that lucia piracy movie leaked in full hd in karnataka. so i want u to take some care to remove. i am ur lucia true fan and i wish ur reply to'
p29
sg5
g29
sg6
g7
ssI11
(dp30
g3
S'kudos pawan, well deserved success!'
p31
sg5
g31
sg6
g7
ssI12
(dp32
g3
S'pawan really great direction'
p33
sg5
g33
sg6
g7
ssI13
(dp34
g3
S'this movie is awesome. thnks AT_USER want more movie of this type.... really spent nice time on concentrating... feels so good watching this type of movies in kannada'
p35
sg5
g35
sg6
g7
ssI14
(dp36
g3
S'finally an inspirational & life changing book in this decade-one book for life success by mr venu g.somineni.'
p37
sg5
g37
sg6
g7
ssI15
(dp38
g3
S'just saw this movie..bloody awesome..'
p39
sg5
g39
sg6
g7
ssI16
(dp40
g3
S'keka boos '
p41
sg5
g41
sg6
g18
ssI17
(dp42
g3
S'dude!! one cannot say a film is similar because the story is based on similar concepts!! if its is like that, then for u apthamitra will have resemblance to anniyan, right? but its utterly false. so think maadi boss'
p43
sg5
g43
sg6
g21
ssI18
(dp44
g3
S'niceeeeeeeeeee'
p45
sg5
g45
sg6
g18
ssI19
(dp46
g3
S'movie was awesome.. thnx to pawan for his fabulous direction n creative tots... we kannadigas appreciate your new concept of story n extraction of new talents.. hats of to new team. satish has done fabulous acting.. music rockzzz:))'
p47
sg5
g47
sg6
g7
ssI20
(dp48
g3
S'@ pawan. respect you a lot sir! admire your style of movie making. next to aarya kandam (tamil), i loved your movie (lucia) a lot. expecting to watch your "life ishtene" dvd. keep rocking. best wishes to your team.'
p49
sg5
g49
sg6
g7
ssI21
(dp50
g3
S'best of luck'
p51
sg5
g51
sg6
g7
ssI22
(dp52
g3
S'my story!!!!!!!!!!!!!! i took atarax tablet; hydroxyzine for my itchy reddish, irritating skin as a treatment schedule, after 2-3 days i was getting dreams of my relatives like brother and sister were died, on alternate days, means one day my brother died, another day my sister was died, that was unbelievable dreams made me to believe after dreams also to be like true'
p53
sg5
g53
sg6
g21
ssI23
(dp54
g3
S'so i was scared like any thing. then i went my native, there all are healthy and alive i found the same. thank god after watching this movie, i came to the side effects of hydroxine tablet study about other drugs of psychiatry, make one more lucia as lucia 2 bye thanks'
p55
sg5
g55
sg6
g7
ssI24
(dp56
g3
S"lucia is my own experience what i saw in theatre' great movie. jai karnataka"
p57
sg5
g57
sg6
g7
ssI25
(dp58
g3
S'hey boss please watch memento and shutter island also...will explain all three together'
p59
sg5
g59
sg6
g7
ssI26
(dp60
g3
S'its just a pure kannada movie. no remake of any other movie. if you make such movies every week i will see a kannada movie. after 2 yrs saw a kannada movie.'
p61
sg5
g61
sg6
g18
ssI27
(dp62
g3
S"brilliant kannada movie. after 2 yrs saw a kannada movie and really happy to see. first time to see a kannada movie where its only movie. please make such brilliant movies more. for sure i am going to watch it 3 times. hat's of to the director and the story writer specially. please encourage such writers more , kannada films will grow more."
p63
sg5
g63
sg6
g7
ssI28
(dp64
g3
S"hat's off to the director"
p65
sg5
g65
sg6
g18
ssI29
(dp66
g3
S'hats of to the director'
p67
sg5
g67
sg6
g18
ssI30
(dp68
g3
S'great job director..'
p69
sg5
g69
sg6
g7
ssI31
(dp70
g3
S'liked the movie a lot. i just found that it draws inspiration from limitless, inception & memento. but producing such a technically sound movie with the low budget is really a huge challenge. hats off pawan kumar...'
p71
sg5
g71
sg6
g7
ssI32
(dp72
g3
S'i watched this twice and will definitely go once more!!'
p73
sg5
g73
sg6
g18
ssI33
(dp74
g3
S'i really dedicated to this to film to myself......... i appreciate this film, he is history maker..'
p75
sg5
g75
sg6
g7
ssI34
(dp76
g3
S'just now i read about this movie in the hindu, being a telugu person i want to learn kannada to touch the soul of the movie'
p77
sg5
g77
sg6
g7
ssI35
(dp78
g3
S'pls some1 explain the movie last 15 mins my id amguruprasath1996AT_USER the climax i dint get to kno..pls'
p79
sg5
g79
sg6
g18
ssI36
(dp80
g3
S"draws a lot of inspiration from memento and inception (both nolan movies).. however, that doesn't undermine the direction and cinematography.. the script is entirely local (that cannot be copied from a hollywood movie) drawing inspiration from great movies and applying it to a whole new specific story - is a fantastic achievement... magnificent direcction, good acting.. and a well knit plot."
p81
sg5
g81
sg6
g7
ssI37
(dp82
g3
S"movie is fully based on kanakadasa's keerthane. i think tat man had seen god in dream & it as cum true....."
p83
sg5
g83
sg6
g18
ssI38
(dp84
g3
S'concept seems almost similar to inception but i hope u have researched about lucid dreams n u synchronized da story in indian style!! very good direction bro its not tat easy to handle this kinda tough stories im happy u did it! n i loved it :) congrats :)'
p85
sg5
g85
sg6
g7
ssI39
(dp86
g3
S'totaly i like sathishaaa... because we expect more sathishaaa...from drama days ..&i hope our naturel hero dont dis oppointed me so this sunday i go with my family ... & best of luck to our satheeshaaa ..& also the director should take more risk over satheshaa but sir dont worry u realy reached the goal... .....'
p87
sg5
g87
sg6
g7
ssI40
(dp88
g3
S'i felt very happy movie released in pune...i watched nice movie...thank you for giving good movie for kannada industry'
p89
sg5
g89
sg6
g7
ssI41
(dp90
g3
S'guru movie super but ond doubt,producer mathu co producer hesaru torsbekare sumaru 150 jana idru(audience movie),but movie turnover yarige???'
p91
sg5
g91
sg6
g7
ssI42
(dp92
g3
S'good movie ... first its kind of movie in kannada . great creativity also you can see in the movie. but i guess he taken inspiriation from inception movie thats lead to u & hero confusion about dream & reality.'
p93
sg5
g93
sg6
g7
ssI43
(dp94
g3
S'by the looks of it... the story is based on a hollywood movie starring christian bale "the machinist". need to watch and decide.'
p95
sg5
g95
sg6
g18
ssI44
(dp96
g3
S"well at the beginning you'd get a feeling that it resembles 'the machinist'. pretty much his sleeplessness and hallucinations. yet to watch it though!"
p97
sg5
g97
sg6
g7
ssI45
(dp98
g3
S'inception? lol, dude, grow up!'
p99
sg5
g99
sg6
g7
ssI46
(dp100
g3
S'awesome... nyc movie...everyone must watch...'
p101
sg5
g101
sg6
g7
ssI47
(dp102
g3
S'great pawan. hope nimma fountain head of creativity keeps doling out such gems. congrats on a great movie!'
p103
sg5
g103
sg6
g7
ssI48
(dp104
g3
S'the best thing about the film was not the twist or different concept but the art of fusion of nativity into it very well done without going for out and out influence of other concept films which makes it stand on its own.'
p105
sg5
g105
sg6
g7
ssI49
(dp106
g3
S"i won't mind a massage."
p107
sg5
g107
sg6
g7
ssI50
(dp108
g3
S'awesome movie. must watch ! kudos to the lucia team it can be compared to inception !! :)'
p109
sg5
g109
sg6
g7
ssI51
(dp110
g3
S'i hope this will b a good movie, which gives a good massage to people, good luck to loosia team..........'
p111
sg5
g111
sg6
g7
ssI52
(dp112
g3
S'buying the music now. will watch the movie too and i hope it runs for a long time :) all the best!'
p113
sg5
g113
sg6
g7
ssI53
(dp114
g3
S'good trailer'
p115
sg5
g115
sg6
g7
ssI54
(dp116
g3
S'nyc trailer...hope hit d screens soon...!!'
p117
sg5
g117
sg6
g18
ssI55
(dp118
g3
S'sakathagide wating for pavans direction..'
p119
sg5
g119
sg6
g18
ssI56
(dp120
g3
S'have u seen figh club properly chetan kumar in tat movie the protagonist who suffers from insomnia creates another personality and so he goes on a rampage but this movie as u see in trailer is related to drugs n sutff'
p121
sg5
g121
sg6
g18
ssI57
(dp122
g3
S'i am not sure of thought process or anything like that but if its a copy then it doesnt deserve any credit..just because a student worked hard in the exam hall to copy others answer doesnt mean he deserves the end result !!!!'
p123
sg5
g123
sg6
g21
ssI58
(dp124
g3
S"i'm waiting fr this movie............... "
p125
sg5
g125
sg6
g18
ssI59
(dp126
g3
S'looks good. waiting for the movie.'
p127
sg5
g127
sg6
g7
ssI60
(dp128
g3
S"well, i don't see the air that needs to cleared. the english movie you mentioned here are two great movie. but comparing them with manasaare and lucia doesn't justify ones hard work. may be the movie carries same essence and idea from english movie but bringing a parallelism takes a lot of hard work, creativity and huge thought process, especially when the audience are different."
p129
sg5
g129
sg6
g7
ssI61
(dp130
g3
S'very good experiment, i hope your experiment will cure the audience pain in some extent.. good work mr.pavan'
p131
sg5
g131
sg6
g7
ssI62
(dp132
g3
S'request you not to make ppl wait too much... u knw wt hpnd to h2o ..'
p133
sg5
g133
sg6
g18
ssI63
(dp134
g3
S'pavan kumarAT_USER r d god gift for kannada industry.... we need innovator not a remaker'
p135
sg5
g135
sg6
g18
ssI64
(dp136
g3
S'hey niz trailer bro nd nangnsutte idu hangover movie-du story tarane irbahudu anta!!!!'
p137
sg5
g137
sg6
g18
ssI65
(dp138
g3
S'if u mean d split personality used frm fight club ... then its already been used in psycho ...that is not exactly what fc is cult for...its usp was its radical social msg , which nobody was very comfortable with when it was released.... even the book met with same fate i suppose ...but it was received well later on ... as for presentation of the movie it seem more draw towards documentary style(film festivals)..i do agree its nt unique..bt its gd 2 c such a mov in kannada'
p139
sg5
g139
sg6
g7
ssI66
(dp140
g3
S'sandalwood seems to be changing for good...gr8'
p141
sg5
g141
sg6
g7
ssI67
(dp142
g3
S'please release the movie in hyderabad and chennai also.'
p143
sg5
g143
sg6
g7
ssI68
(dp144
g3
S'movie baro tanka yellanu adimkond irrapa... yak iruve bitkoltira.. and pawan all the best with our audience :)'
p145
sg5
g145
sg6
g7
ssI69
(dp146
g3
S'awesome!!! '
p147
sg5
g147
sg6
g7
ssI70
(dp148
g3
S'pavanji u r a role model'
p149
sg5
g149
sg6
g18
ssI71
(dp150
g3
S"prapanchadalli iro ella maklu nu onde tara uttodu swamy! don't worry, it's got very little to do with fight club. i have already watched it twice!"
p151
sg5
g151
sg6
g21
ssI72
(dp152
g3
S"many of rehman's tracks resembles many english album, dude. once in an interview, cyrus broacha asked abt it to rehman, his reply was, if he had not follow or add such copied tunes, he wudn't be 'a.r. rehman' wat we r seeing him. djs mix the different music for remix, he'll be success only when he knows 'what to remix, how to remix..etc'. so, just take it if it sounds gud. dats it. if times come, if required, he'll reveal :-). \\m/"
p153
sg5
g153
sg6
g7
ssI73
(dp154
g3
S'amazing trailor director boss hope to see movie first show in main theatre'
p155
sg5
g155
sg6
g7
ssI74
(dp156
g3
S'hi... pawan please try 2 release in dubai.........'
p157
sg5
g157
sg6
g7
ssI75
(dp158
g3
S'sir icant sleep realese the movie.........'
p159
sg5
g159
sg6
g18
ssI76
(dp160
g3
S"in what way did you find manasaare similar to 'one flew over the cuckoo's nest' ? the basic plot of the movie itself is totally different. and coming to this trailer, come on this is just a trailer. having 'insomnia' as a concept doesn't mean it is similar to fight club. anyways, now since the movie is being screened at liff, definitely it cant have any similarity to fight club :)"
p161
sg5
g161
sg6
g7
ssI77
(dp162
g3
S'superb ! i like the trailer, want to watch full movie but in english or hindi dubbed, is it possible ?'
p163
sg5
g163
sg6
g7
ssI78
(dp164
g3
S'amazing trailer ... hope to see this movie in theatre '
p165
sg5
g165
sg6
g7
ssI79
(dp166
g3
S'sir i want to work with u sir .. my cont no : 8880959541'
p167
sg5
g167
sg6
g7
ssI80
(dp168
g3
S'good job in kannada industris.'
p169
sg5
g169
sg6
g7
ssI81
(dp170
g3
S'superb trailor '
p171
sg5
g171
sg6
g7
ssI82
(dp172
g3
S'halka nan makalra... keep up the work i say good job'
p173
sg5
g173
sg6
g7
ssI83
(dp174
g3
S'superb.......trailer thumba channagide, songs impagive.'
p175
sg5
g175
sg6
g7
ssI84
(dp176
g3
S'superb........i love it.......we were waiting for this type of movie kannada but....without promotion will not success'
p177
sg5
g177
sg6
g7
ssI85
(dp178
g3
S'yup :p his voice'
p179
sg5
g179
sg6
g18
ssI86
(dp180
g3
S"that's not his voice i think"
p181
sg5
g181
sg6
g18
ssI87
(dp182
g3
S'movie is not even released. ishtu speculation matte negativity yake??. even if it is copied know that plagiarism is an art:)'
p183
sg5
g183
sg6
g18
ssI88
(dp184
g3
S"pawan tamma pratibhe node tumba khushi agtide, technically and yist talent an kannada film inds ge dedicate madirodu yinnu grate.. really we fedup with current kannada movie.. other than some good ones,like uppi's, yogaraj, guruprasad.. thanks for new dimension in kannada,"
p185
sg5
g185
sg6
g7
ssI89
(dp186
g3
S'pavan sir..trailer is awesome...all the best for ur movie...and we support u for all the new ideas u are bringing up..wish very good luck...'
p187
sg5
g187
sg6
g7
ssI90
(dp188
g3
S'keep watching and encouraging our movies......'
p189
sg5
g189
sg6
g7
ssI91
(dp190
g3
S'true that....'
p191
sg5
g191
sg6
g18
ssI92
(dp192
g3
S"i've seen fightclub,machinist.there's no resemblence except insomnia....."
p193
sg5
g193
sg6
g18
ssI93
(dp194
g3
S'hi chethan, even i feel the same. this looks to be simiar to fight club, hope director pavan has seen that movie. hope director pavan clarifies this...'
p195
sg5
g195
sg6
g18
ssI94
(dp196
g3
S'good.............. '
p197
sg5
g197
sg6
g7
ssI95
(dp198
g3
S'great job sir... we r having a lot of hopes on u, your earlier movie lifu ishtene was also a creative n experimental movie. great going, our support r always with u....'
p199
sg5
g199
sg6
g7
ssI96
(dp200
g3
S'ur the great director'
p201
sg5
g201
sg6
g7
ssI97
(dp202
g3
S'super making i like ur movie'
p203
sg5
g203
sg6
g7
ssI98
(dp204
g3
S'good point raghu. internet annodhu mangana kaige maanikya kottangaagidhe. enuu maadakkaagalla strange thing is 5 people even liked his comment'
p205
sg5
g205
sg6
g7
ssI99
(dp206
g3
S'vinay, jbx264 thharada gaandugaligella internet sikkare aagodhu idhe, neenu tale kedisikollabeda'
p207
sg5
g207
sg6
g18
ssI100
(dp208
g3
S' ,       .           . (manasaare and ofocn comparison actually makes your statement invalid, still....)  limitless, cinema paradiso   ,  ""  ( ). ,  foley recording  .      .'
p209
sg5
g209
sg6
g7
ssI101
(dp210
g3
S'watch the sequel : after_lucia , spanish movie ! :p juz kidding.. respect !!'
p211
sg5
g211
sg6
g7
ssI102
(dp212
g3
S'super pavan....'
p213
sg5
g213
sg6
g7
ssI103
(dp214
g3
S'2:00 a siddi in the movie!!!!! after a long time.. i guess the last one was in boothayana maga ayyu.. good job by giving chances to them'
p215
sg5
g215
sg6
g7
ssI104
(dp216
g3
S'the only link between fight club and this movie is insomnia .. if that is the case i am brad pitt !!! :d i guess its in no way similar ! but would really love it if kannada movie makers would watch such movies and get an inspiration from it than to watch the cheap telugu and hindi movies and remake em ...'
p217
sg5
g217
sg6
g7
ssI105
(dp218
g3
S'vishwanath.987kiranAT_USER'
p219
sg5
g219
sg6
g18
ssI106
(dp220
g3
S'soooo far ....... so good......'
p221
sg5
g221
sg6
g7
ssI107
(dp222
g3
S"dude i watched fight club as well.there's no similarity....lets wait for the movie..."
p223
sg5
g223
sg6
g7
ssI108
(dp224
g3
S'neen kano bevarsi.......'
p225
sg5
g225
sg6
g18
ssI109
(dp226
g3
S'will watch and come back to u.....'
p227
sg5
g227
sg6
g18
ssI110
(dp228
g3
S"shut up man...i've watched the machinist where the person is suffering from insomnia.that is the only thing which is matching.....every 1 knows who is posting idiotic comments...watch lucia and then come here to comment on that.dont simply post comments like a fool.."
p229
sg5
g229
sg6
g21
ssI111
(dp230
g3
S"gubald i just saw 'the machinist' now.there's no such resemblence.if u find any share it....."
p231
sg5
g231
sg6
g7
ssI112
(dp232
g3
S"watch 'fight club', if u can?"
p233
sg5
g233
sg6
g18
ssI113
(dp234
g3
S'ley ajam, nin antha bevarsi ge "resemblance" gothagala bidu. first learn to spell correctly before posting your idiotic comments'
p235
sg5
g235
sg6
g21
ssI114
(dp236
g3
S"please explain where you saw the resemblance to fightclub. manasaare and one flew over the cuckoo's nest were deeply connected!!!! please explain how?(except for the mental hospital)"
p237
sg5
g237
sg6
g7
ssI115
(dp238
g3
S'pawan sir........... am a big fan of u n i wanna meet u n work with u as i also have some new creative ideas n have dream to create a world premiere movie in kannada...'
p239
sg5
g239
sg6
g7
ssI116
(dp240
g3
S'this is brilliant! :) the way the whole thing has been shot.. AT_USER : you\'ve raised the bar to a different level.. never expected to see off-beat films in "sandalwood" atleast! :) cheers!! and yes if you\'re still looking for singers, or any creative assistance, i could be of some help! :) do let me know pawan..'
p241
sg5
g241
sg6
g7
ssI117
(dp242
g3
S'love the fresh tune of this song - youtube.com/watch?v=01hi-8scisa movie looks promising... waiting besides inox without sleep :)'
p243
sg5
g243
sg6
g7
ssI118
(dp244
g3
S'superb film i love kannada only '
p245
sg5
g245
sg6
g7
ssI119
(dp246
g3
S"is this movie available only online?? won't it get released in theatres??"
p247
sg5
g247
sg6
g7
ssI120
(dp248
g3
S"pawan you're probably the best young directors to enter kannada industry. wish that lucia too will become a big hit like lifeu ishtene."
p249
sg5
g249
sg6
g7
ssI121
(dp250
g3
S'simply awesome.. not watched kannada movie for last few years.. this movie will make me go to theatre..need a serious shift in kannada movie making from.. just fighting, poor boy-rich girl, mandatory villain, pathetic script, poor direction..etc. best thing that i see in lucia trailer is.. cinema photography, freshness, cast.. i am kannadiga and love to see kannada language movie to expand its reach to intelligent and tasteful audience but voluntarily ithrough mproving quality of our movies..'
p251
sg5
g251
sg6
g7
ssI122
(dp252
g3
S'probably the last few years you have missed lot of good kannad movies. its time you catch up all of them.'
p253
sg5
g253
sg6
g7
ssI123
(dp254
g3
S'by looking at this trailer & quality of the photography, i pre-ordered this movie (by paying 2,500/- rupees ). request the viewers to support this unique initiative of pawan by pre-ordering the movie.'
p255
sg5
g255
sg6
g7
ssI124
(dp256
g3
S'super sir!! heavy thrill ide ansutte. psychological thrillera?'
p257
sg5
g257
sg6
g7
ssI125
(dp258
g3
S'lol fight club.. i dont see any resemblance'
p259
sg5
g259
sg6
g7
ssI126
(dp260
g3
S"pawan, its a good effort but it has a lot of resemblance to 'fight club'...hope you've seen that movie.. also 'manasaare' and 'one flew over the cuckoo's nest' were deeply connected.. manasare was written by u.. do write your opinion on this opinion.. clear the air.."
p261
sg5
g261
sg6
g7
ssI127
(dp262
g3
S'totally new effort and nice one'
p263
sg5
g263
sg6
g7
ssI128
(dp264
g3
S"pawan y can't approach ur guru mr.bhatt,"
p265
sg5
g265
sg6
g18
ssI129
(dp266
g3
S'am the big fan of u pavan.....i want to produce your next movie ..plz give me a chance..plz contact me on 9241040442'
p267
sg5
g267
sg6
g7
ssI130
(dp268
g3
S'grt pawan.. its gonna bring new era.. by trailer its giving the hope that its gonna be mix of drug mafia with love... hope it should have a thrilling screenplay with best cinematography... looks super pawan.. all the best... :)'
p269
sg5
g269
sg6
g7
ssI131
(dp270
g3
S'audio release ge wait maadta iddini.. specially " ,   !" ... have watched this trailer for long enough and watched \'the machinist\' and \'tfc\' and read the comments below.. sumne typing practise maadtira :p looks very promising and fresh ! all the best pawan.. p.s : eagerly waiting for my copy of pre-order :p'
p271
sg5
g271
sg6
g7
ssI132
(dp272
g3
S'a decent trailor pawan, please keep the movie nice. im a kannadiga who expect more than just remakes from kannada film industry. we are capable of more. please get new and talented kannada actors up.. i want to see a fantabulous kannada movie.. than remains in peoples mind.. mungaru male was the last such movie.. literally all i know have seen that movie (no region bar). all the best.. i will watch all kannada movie that is promising and a decent trial for awesomness. thank you'
p273
sg5
g273
sg6
g7
ssI133
(dp274
g3
S'trailer looks interesting.. eager to watch it.'
p275
sg5
g275
sg6
g7
ssI134
(dp276
g3
S'hi pawan is it possible to release in theatre in glasgow(uk) . i can watch in home talkies but like watch it in cinemas. i know very few kannada people staying here. just asking. but great work pawan  waiting for this movie....'
p277
sg5
g277
sg6
g7
ssI135
(dp278
g3
S'interesting film, and,amazing camera work... loved it..'
p279
sg5
g279
sg6
g7
ssI136
(dp280
g3
S'loved it :)'
p281
sg5
g281
sg6
g18
ssI137
(dp282
g3
S'benki.i.i.............'
p283
sg5
g283
sg6
g18
ssI138
(dp284
g3
S'good'
p285
sg5
g285
sg6
g7
ssI139
(dp286
g3
S'suparrrrrr...... '
p287
sg5
g287
sg6
g18
ssI140
(dp288
g3
S'    ....   releasu??'
p289
sg5
g289
sg6
g18
ssI141
(dp290
g3
S'mr sharp.. good  you wish good for all .... i was in us too and if you idolize some one and he is called dude .. may be you can take it .. but certainly not his fans !!! definitely not me !!!!'
p291
sg5
g291
sg6
g7
ssI142
(dp292
g3
S'mr shar859 !!!!!! please keeep in mind .. pawan is our celebrity .. be fore making any unwarranted comments i suggest you not to use this forum .. he is not your "dude"... he is doing an outstanding job and is a great person!!!! please note he has taken time to respond to you here , that it self is exclamatory ... all the best to you and your friend!!!'
p293
sg5
g293
sg6
g7
ssI143
(dp294
g3
S'in us ah ? ... well i think its been used fairly every where .. ... mr pawan kumar is much better !!!! .... i fairly understood from the comments on whats happening.... silly is too subjective mr sharp ....'
p295
sg5
g295
sg6
g7
ssI144
(dp296
g3
S'the machinist !!! go home dude !! you are drunk ... the movie is not yet released , lets wait n see. AT_USER the trailer is really great !!!!!'
p297
sg5
g297
sg6
g7
ssI145
(dp298
g3
S'i think you started the issue here... in an attempt to get attention. this is the trailer of the film.. nothing to do with the singing competition.. so your first comment was totally unrelated and uncalled for. so my question is why bring it up here in the first place? unless you guys wanted some sympathy. and tht too after answering to ur friend personally in an email that the results will be announced at a later stage. she hasn"t made it. in bold and clear. pls convey the same. thank you.'
p299
sg5
g299
sg6
g7
ssI146
(dp300
g3
S'i hope u have seen the the machinist.'
p301
sg5
g301
sg6
g18
ssI147
(dp302
g3
S"ur friend didn't make it... she had the potential but after seeing the attitude that she has.. we are not going to support or promote or even call her in the future. and pls know and tell her that we can block her video of our song on grounds of copyright violation. but we wont do that... we will let her use it as her audition piece. but if this 'sympathy calls' crosses the limits, we will pull her video out. pls convey the same."
p303
sg5
g303
sg6
g21
ssI148
(dp304
g3
S'even i hve heard few responses, maybe the original song was better than the responses!!'
p305
sg5
g305
sg6
g18
ssI149
(dp306
g3
S"a guy who makes a nice chair doesn't owe money to everyone who has ever built a chair. jesse eisenberg ...social network! just cos he suffers from insomnia doesn't mean its a rip off from machinist! resemblance is one thing ! rip off is another !"
p307
sg5
g307
sg6
g7
ssI150
(dp308
g3
S'are u really from karnataka..???..........go get a life.....commenting twice wont affect the movie......'
p309
sg5
g309
sg6
g21
ssI151
(dp310
g3
S'good trailer, though i wouldnt have included the eating by hand scene +/- washing scene as its slightly revolting.'
p311
sg5
g311
sg6
g7
ssI152
(dp312
g3
S"hai pawan,great effort...any way even i want to promote your movie without any expectation.i hve some new ideas ,if u don't mind u can contact me ....good luck !"
p313
sg5
g313
sg6
g7
ssI153
(dp314
g3
S'please make this movie an inspiration to other film industry. trailer has nice art and visualization. awesome pavan. '
p315
sg5
g315
sg6
g7
ssI154
(dp316
g3
S'superb trailer!'
p317
sg5
g317
sg6
g7
ssI155
(dp318
g3
S'i was awaiting for the first look of this movie ever since it was announced...and it looks amazing!!! hats off to the team!! all the best!!'
p319
sg5
g319
sg6
g7
ssI156
(dp320
g3
S' ,   !  ,   !   .. but the tune and lyrics further are really catchy.'
p321
sg5
g321
sg6
g18
ssI157
(dp322
g3
S'amazing trailer, all the best'
p323
sg5
g323
sg6
g7
ssI158
(dp324
g3
S' ,   !  ,   !   ,   !   ,   !      ?! - '
p325
sg5
g325
sg6
g18
ssI159
(dp326
g3
S'amazing trailer, no spoilers, waitin to watch. hope this will be the answer to everyone who looks down upon kannada movies'
p327
sg5
g327
sg6
g7
ssI160
(dp328
g3
S'super pawan, bt stil expecting more frm u.., b wit kannada nativity.., eagerly waitin fr the movie'
p329
sg5
g329
sg6
g7
ssI161
(dp330
g3
S'superbbbbbbbbbbbbbbbbbbbbbbbbbbbbbbbbbb!!!!!! luciya'
p331
sg5
g331
sg6
g18
ssI162
(dp332
g3
S'aaithu bidu anna... innu ee movie innu jasthi negative publicity mada bedi.. yeno navu dadda nan maklu nodi kushi padativi..'
p333
sg5
g333
sg6
g21
ssI163
(dp334
g3
S"can't believe that you shot this whole movie with a 5d :d"
p335
sg5
g335
sg6
g7
ssI164
(dp336
g3
S'nt gud'
p337
sg5
g337
sg6
g18
ssI165
(dp338
g3
S'   :)'
p339
sg5
g339
sg6
g18
ssI166
(dp340
g3
S'irli bidri! yaare koogadali, kempegowda antha direct remake chitragalige market irbekadre, yaavdo foreign language films jothege onde ondu aspect-nalli similarity iro chitra-na yaake thegalabeku? hengo nam industry kadak adre saak.'
p341
sg5
g341
sg6
g18
ssI167
(dp342
g3
S'wow ! trailer sakkathageno ide, movie bega release madrappo !'
p343
sg5
g343
sg6
g18
ssI168
(dp344
g3
S'lsd'
p345
sg5
g345
sg6
g18
ssI169
(dp346
g3
S'flap'
p347
sg5
g347
sg6
g18
ssI170
(dp348
g3
S'out of the box thinker.. we r hea to watch such movies.. well done..'
p349
sg5
g349
sg6
g7
ssI171
(dp350
g3
S'artha agalila but ista aithu'
p351
sg5
g351
sg6
g18
ssI172
(dp352
g3
S'super guru '
p353
sg5
g353
sg6
g7
ssI173
(dp354
g3
S"ya really nice trailer ,i think movie is also nice ,we r waiting for movie,really pawan's lucia rocks, what is the meaning of lucia"
p355
sg5
g355
sg6
g7
ssI174
(dp356
g3
S"it's a dream come true for you pawan, this is the result of what you pursued. good luck and success be with you in all your future endeavours."
p357
sg5
g357
sg6
g7
ssI175
(dp358
g3
S'people who say kannada movies are not gud, herz the answer for it watch this trailor,, pawan bro all the best guarantee hit < we hav all support for u all time.. :-)'
p359
sg5
g359
sg6
g7
ssI176
(dp360
g3
S'tumba chennagide trailer. release yavaaga?'
p361
sg5
g361
sg6
g18
ssI177
(dp362
g3
S'very nice dear, nimma shrama saartakavaagali. '
p363
sg5
g363
sg6
g7
ssI178
(dp364
g3
S'superb trailer pavan all the best :)'
p365
sg5
g365
sg6
g7
ssI179
(dp366
g3
S'all the very best bro. proud to be a part of a kannada audience to watch a breakthrough after long trails of stereotypical kannada cinema.'
p367
sg5
g367
sg6
g7
ssI180
(dp368
g3
S'thank god...finally the movie trailer is out...we have lot of hopes on this move and we are sure that we will not be disappointed.'
p369
sg5
g369
sg6
g21
ssI181
(dp370
g3
S'for all those who think it is a remake of fight club..please do watch fight club again.first,the protagonist in fight club is not intoxicated,secondly insomnia is an universal disease and not necessary that it has to be driven from fight club.thirdly,edward norton has a tough time accepting himself so he creates an alter ego in the form of tyler durden who is nowhere like the punk guy in lucia.context of this movie is totally different and it is very unique.all d best pawan!really impressed!'
p371
sg5
g371
sg6
g7
ssI182
(dp372
g3
S'thanks for giving dis trailer'
p373
sg5
g373
sg6
g7
ssI183
(dp374
g3
S'yes, the few taxi driver, fight club influences are visible but what the heck. this looks really promising and fresh. love the crowd funding concept. waiting for its release.'
p375
sg5
g375
sg6
g7
ssI184
(dp376
g3
S'i love d trailer & dt sng .......'
p377
sg5
g377
sg6
g7
ssI185
(dp378
g3
S'pawan sir.......love u...... after life istene one more rocking movie. waiting for release. please release it in hyderabad.'
p379
sg5
g379
sg6
g7
ssI186
(dp380
g3
S'did a pre-order..'
p381
sg5
g381
sg6
g18
ssI187
(dp382
g3
S'be it inspired from fight club, be it limitless, be it machinist.. every movie is inspired from something. . and pawan is such a director that he has his own unique style of movie making.. i don\'t think he would copy something. . but sure he will give it a new definition. . anyway the concept is new to kannada. . i\'ll definitely watch it :) colorfull trailer :) all the best pawan at 1:52 the guy asks "who\'s this girl?" and that voice is directors\'..!!'
p383
sg5
g383
sg6
g7
ssI188
(dp384
g3
S'AT_USER ur comments would have made some sense, if you had commented after watching the full movie....and then, coming to ur point, there are zillions of movies in hollywood which deals with insomnia concept... for example the classic de niro\'s taxi driver, nolan\'s "insomnia",  as you mentioned fight club and the recent one "the girl with dragon tatoo" and all stories are different from each other... so, plz before shitting something in the internet, think twice...'
p385
sg5
g385
sg6
g21
ssI189
(dp386
g3
S'gud work ! waitin :)'
p387
sg5
g387
sg6
g18
ssI190
(dp388
g3
S'thanks for the trailer....... waiting to see the movie... thanks for upload......'
p389
sg5
g389
sg6
g7
ssI191
(dp390
g3
S"no, looks like you haven't watched fight club (1999). machinist was inspired by fight club but this one above lucia appears like a fight club remake. valid points are as follows. the film clearly deals with insomnia like fight club. gaurish akki asks, is your girlfriend an imagination of yours, which is another plot twist from fight club. the tattooed punk in lucia trailer is like brad pitt's tyler durden. there is a projector in fight club just like the one above (may not be a valid point)."
p391
sg5
g391
sg6
g7
ssI192
(dp392
g3
S'2 people who disliked didnt sleep for nights.. :-p'
p393
sg5
g393
sg6
g21
ssI193
(dp394
g3
S"good cinematography. but looks like your movie is inspired by david fincher's fight club."
p395
sg5
g395
sg6
g7
ssI194
(dp396
g3
S'superrrrrrrrrrrrrr'
p397
sg5
g397
sg6
g18
ssI195
(dp398
g3
S'superagede ............traileruuuu'
p399
sg5
g399
sg6
g18
ssI196
(dp400
g3
S'the heroine is cute... i will surely watch'
p401
sg5
g401
sg6
g7
ssI197
(dp402
g3
S'looks a lot like limitless'
p403
sg5
g403
sg6
g7
ssI198
(dp404
g3
S'super trailer boss, waiting to watch the full movie.............. '
p405
sg5
g405
sg6
g7
ssI199
(dp406
g3
S'waiting to watch either at talkies or @ home talkies :-) best of luck.'
p407
sg5
g407
sg6
g7
ssI200
(dp408
g3
S'super!!! waiting to watch!'
p409
sg5
g409
sg6
g7
ssI201
(dp410
g3
S'woh.. interest huttisbittte guru... eega movie nodade, nemmadi iraala..'
p411
sg5
g411
sg6
g7
ssI202
(dp412
g3
S"this movie is free of stars and market pressures, which primarily controlling the content of the movies that we are watching today. the success of this project could create a parallel industry for kannada films making it fair and effective. any one with talent will be able to pursue a successful career in the film industry without having to worry about 'background'.          !!!"
p413
sg5
g413
sg6
g7
ssI203
(dp414
g3
S'awsome... simply superb'
p415
sg5
g415
sg6
g7
ssI204
(dp416
g3
S"looks very creative...waiting forward for this movie!!!! and its pawan's ....!!! so it has to be good ..."
p417
sg5
g417
sg6
g7
ssI205
(dp418
g3
S'maaama.. ashten kick illvalla trailer alli!!!??'
p419
sg5
g419
sg6
g18
ssI206
(dp420
g3
S'great to know that u got to know the twist from this trailer itself.. god bless you!'
p421
sg5
g421
sg6
g7
ssI207
(dp422
g3
S'super trailer rocks, will pre order the movie today :) awesome'
p423
sg5
g423
sg6
g7
ssI208
(dp424
g3
S'looks like a clear rip-off of the machinist (2004)'
p425
sg5
g425
sg6
g7
ssI209
(dp426
g3
S"hi sirr!! the trailer is really good...hope the movie is too...reminded me of bradley cooper's 'limitless'...hope its original...all the best :)"
p427
sg5
g427
sg6
g7
ssI210
(dp428
g3
S"expectations did't went wrong.. hope it will be the blockbuster of 2013 :)"
p429
sg5
g429
sg6
g21
ssI211
(dp430
g3
S'sooper '
p431
sg5
g431
sg6
g18
ssI212
(dp432
g3
S'wow '
p433
sg5
g433
sg6
g18
ssI213
(dp434
g3
S'i had so much expectations on lucia turned out to be simple kinda movie with little twist i watched many times to get feel of it but dont know there is little lag and not that great for sure to be very frank its doesnt create kick ass interest but above on par with other kannada movies for sure. will wait for movie. please note a very true and frank opinion from my side.'
p435
sg5
g435
sg6
g7
ssI214
(dp436
g3
S"hi pawan... you didn't disappoint us after your lifeoo istene... keep up the same quality what u hv shown in the trailer... quality share 90% of the whole film.. most of the kannada movies are fails becoz of quality even if they are good at story... i wish u best of luck... and i hv some good suggestions to give to kannada film industry... plz mail me on iammadhusudhanAT_USER when u r free... so we can discuss abt it... as i am nt fully dedicated to film industry... at least i can thru u ppl"
p437
sg5
g437
sg6
g7
ssI215
(dp438
g3
S'wooo... there s an anonymous associate producer'
p439
sg5
g439
sg6
g18
ssI216
(dp440
g3
S'awesome trailer pawan....i hope its original....:) '
p441
sg5
g441
sg6
g7
ssI217
(dp442
g3
S'wow super trailer all the best lucia team'
p443
sg5
g443
sg6
g7
ssI218
(dp444
g3
S'after watching it i came to know something.. one is satish will have a dream where he finds a girl n something strange.. he tries to see if thats girl n things really exist.. is it true??'
p445
sg5
g445
sg6
g21
ssI219
(dp446
g3
S'superb....'
p447
sg5
g447
sg6
g7
ssI220
(dp448
g3
S'borning video....!!!'
p449
sg5
g449
sg6
g18
ssI221
(dp450
g3
S'awesome!!!'
p451
sg5
g451
sg6
g7
ssI222
(dp452
g3
S'i cant believe its a kannada movie trailer... i will watch it for sure... all the best pawan :)'
p453
sg5
g453
sg6
g7
ssI223
(dp454
g3
S"we needed this kind of movies since 2004. :) :') . all the best :)"
p455
sg5
g455
sg6
g7
ssI224
(dp456
g3
S' ..     ...   ..     ...     ... :)'
p457
sg5
g457
sg6
g18
ssI225
(dp458
g3
S' ..  ....  ..  ....  ..  ...  ..  ...     ...   ...  ...     ...   ..   ...   ...          ... :)'
p459
sg5
g459
sg6
g18
ssI226
(dp460
g3
S'superb '
p461
sg5
g461
sg6
g7
ssI227
(dp462
g3
S'icky alla! nikki :-p'
p463
sg5
g463
sg6
g18
ssI228
(dp464
g3
S'nice dialogues...... good luck to lucia team ..'
p465
sg5
g465
sg6
g7
ssI229
(dp466
g3
S'reminds me of dev d by anurag kashyap..'
p467
sg5
g467
sg6
g18
ssI230
(dp468
g3
S'super!'
p469
sg5
g469
sg6
g7
ssI231
(dp470
g3
S'nee maayeyolago ninnolu maayeyo.. nice...'
p471
sg5
g471
sg6
g7
ssI232
(dp472
g3
S'looks more like hang over movie concept in india way......'
p473
sg5
g473
sg6
g18
ssI233
(dp474
g3
S'excellent!'
p475
sg5
g475
sg6
g7
ssI234
(dp476
g3
S'trailer eno bombaat. picture kooda hage idre century ge mosa illa.'
p477
sg5
g477
sg6
g18
ssI235
(dp478
g3
S'all d frame filled with lots of colours...promone super...film should be superb..all the best'
p479
sg5
g479
sg6
g7
ssI236
(dp480
g3
S'1883 and counting... thumbs up for your effort.. all the best :)'
p481
sg5
g481
sg6
g7
ssI237
(dp482
g3
S'trailer really rocking boss. i think you shooted entire film with cannon 5 d camara is it right ?'
p483
sg5
g483
sg6
g18
ssI238
(dp484
g3
S'picture bahal cholo aitrippa all the best'
p485
sg5
g485
sg6
g7
ssI239
(dp486
g3
S'appreciate ur effort pawan, all d best :)'
p487
sg5
g487
sg6
g7
ssI240
(dp488
g3
S'superb pawan :)) all the best :)'
p489
sg5
g489
sg6
g7
ssI241
(dp490
g3
S'gr8 work pavan. hoping to watch it on big screen soon :)'
p491
sg5
g491
sg6
g18
ssI242
(dp492
g3
S'its nice .. hopes and expectations are increased after seeing this..... come soon on the screens...'
p493
sg5
g493
sg6
g7
ssI243
(dp494
g3
S'super pawan :)'
p495
sg5
g495
sg6
g7
ssI244
(dp496
g3
S'chindi guru!!!!'
p497
sg5
g497
sg6
g18
ssI245
(dp498
g3
S'detailin in every scene is very gud, probably the oly talented writer , director in the present genreation of kannada industry,. proud to be ur huge admirere pawan sir, lookin forward for the movie...'
p499
sg5
g499
sg6
g7
ssI246
(dp500
g3
S'ree pawan, balsiro bhashe tumbane chennagide...haage punching dialouges erutte ankondiddini.... overall, its come out good. hope this make a revolution in our industry.'
p501
sg5
g501
sg6
g7
ssI247
(dp502
g3
S'impressive trailer pawan.. really awesome trailer, looks promising.. hope movie is gonna rock'
p503
sg5
g503
sg6
g7
ssI248
(dp504
g3
S'looks promising '
p505
sg5
g505
sg6
g18
ssI249
(dp506
g3
S'@ 1:52 pawan kumar ?? '
p507
sg5
g507
sg6
g18
ssI250
(dp508
g3
S'sooper agide pawan! nangu aa haadu/lyrics thumba ishta aytu!!'
p509
sg5
g509
sg6
g18
ssI251
(dp510
g3
S'online distributor ?'
p511
sg5
g511
sg6
g18
ssI252
(dp512
g3
S'olle trailer, sir! haagene sharavana samasye iruvavarinda "special thanks" for the subtitles! subtitling related aagi enaadru help bekandre, dayavittu contact maadi. all the best!'
p513
sg5
g513
sg6
g7
ssI253
(dp514
g3
S'u just rockzing ... by the way ur guru ......! keeep rocking kfi .... jai karnatakamathi'
p515
sg5
g515
sg6
g18
ssI254
(dp516
g3
S'pawan... one of the first trailers i have seen which does not allow you to guess the story! other trailers make me guess the plot. but here, you keep guessing and guessing without any clues!!! - govinda gandhadagudi'
p517
sg5
g517
sg6
g18
ssI255
(dp518
g3
S'i watched lifu ishtene thrise in theatre only....hope lucia will be multiple times..'
p519
sg5
g519
sg6
g18
ssI256
(dp520
g3
S'very very promising....looks like pawan is the next bing thing of kfi...'
p521
sg5
g521
sg6
g18
ssI257
(dp522
g3
S'mind blowin!! :) very good shot divisions...excellent camerawork and the story line and narration looks very interesting...hav watchd loads f psychological thrillers..and am a grt fan f ths genre...i can c the hollywood movies influence.. wil watch first day first show pakka....but dont dissapoint us in the climax :) cheerzzz'
p523
sg5
g523
sg6
g7
ssI258
(dp524
g3
S'awesome trailer!!. the song was too good.. waiting for audio release and the movie!! thumbs up!!'
p525
sg5
g525
sg6
g7
ssI259
(dp526
g3
S'sure will watch and take others to watch this movie'
p527
sg5
g527
sg6
g18
ssI260
(dp528
g3
S'really nice bro u hv worked so much nd. . . . . wel planed 2 give us such a movies thkq wish u a very all the best for u nd yur team members let all success b yur way. . . .we r waiting 4 it pawan, . . . . .yur nithin raju. . . :)'
p529
sg5
g529
sg6
g7
ssI261
(dp530
g3
S'good stuff! will watch it in the theatres.'
p531
sg5
g531
sg6
g7
ssI262
(dp532
g3
S'mind blowing... all the very best'
p533
sg5
g533
sg6
g7
ssI263
(dp534
g3
S'i really appreciate about the making you have done pawan , i love that song in video all the best!!!'
p535
sg5
g535
sg6
g7
ssI264
(dp536
g3
S'promising trailor, all the best lucia team.     '
p537
sg5
g537
sg6
g7
ssI265
(dp538
g3
S'finally, a kannada movie to recommend & proud of.'
p539
sg5
g539
sg6
g7
ssI266
(dp540
g3
S'looks very promising 1'
p541
sg5
g541
sg6
g18
ssI267
(dp542
g3
S'say: "fresh fresh fresh fresh trailer'
p543
sg5
g543
sg6
g18
ssI268
(dp544
g3
S'spell bound'
p545
sg5
g545
sg6
g18
ssI269
(dp546
g3
S'nice trailer :)'
p547
sg5
g547
sg6
g7
ssI270
(dp548
g3
S'its going to be a reality experience..gud luck..'
p549
sg5
g549
sg6
g18
ssI271
(dp550
g3
S'for the first time, i see a off-bit and different stand and story line (away from swords) in kannada movie.. good going !!'
p551
sg5
g551
sg6
g7
ssI272
(dp552
g3
S'nice trailer... but i can judge the story by watching the trailer.'
p553
sg5
g553
sg6
g7
ssI273
(dp554
g3
S'looks awesome! got to see it first day first show!'
p555
sg5
g555
sg6
g7
ssI274
(dp556
g3
S'ok ok ..!!! nt tat gud ..!!! visual clarity cud hve been better its somewat dull..!!!'
p557
sg5
g557
sg6
g7
ssI275
(dp558
g3
S'change video quality at right bottom to 1080p u can watch in hd quality'
p559
sg5
g559
sg6
g18
sss.